target datalayout = "e-m:e-p270:32:32-p271:32:32-p272:64:64-i64:64-i128:128-f80:128-n8:16:32:64-S128"
target triple = "x86_64-pc-linux-gnu"

%"class.llvm::Metadata" = type { i8, i8, i16, i32 }
%"class.llvm::MDNode" = type { %"class.llvm::Metadata", %"class.llvm::ContextAndReplaceableUses" }
%"class.llvm::ContextAndReplaceableUses" = type { %"class.llvm::PointerUnion" }
%"class.llvm::PointerUnion" = type { %"class.llvm::pointer_union_detail::PointerUnionMembers" }
%"class.llvm::pointer_union_detail::PointerUnionMembers" = type { %"class.llvm::pointer_union_detail::PointerUnionMembers.0" }
%"class.llvm::pointer_union_detail::PointerUnionMembers.0" = type { %"class.llvm::pointer_union_detail::PointerUnionMembers.1" }
%"class.llvm::pointer_union_detail::PointerUnionMembers.1" = type { %"class.llvm::PointerIntPair" }
%"class.llvm::PointerIntPair" = type { %"struct.llvm::detail::PunnedPointer" }
%"struct.llvm::detail::PunnedPointer" = type { [8 x i8] }
%"class.llvm::ArrayRef.597" = type { ptr, i64 }
%"class.llvm::DIExpression" = type { %"class.llvm::MDNode", %"class.std::vector" }
%"class.std::vector" = type { %"struct.std::_Vector_base" }
%"struct.std::_Vector_base" = type { %"struct.std::_Vector_base<unsigned long, std::allocator<unsigned long>>::_Vector_impl" }
%"struct.std::_Vector_base<unsigned long, std::allocator<unsigned long>>::_Vector_impl" = type { %"struct.std::_Vector_base<unsigned long, std::allocator<unsigned long>>::_Vector_impl_data" }
%"struct.std::_Vector_base<unsigned long, std::allocator<unsigned long>>::_Vector_impl_data" = type { ptr, ptr, ptr }
%"class.std::optional.599" = type { %"struct.std::_Optional_base.600" }
%"struct.std::_Optional_base.600" = type { %"struct.std::_Optional_payload.602" }
%"struct.std::_Optional_payload.602" = type { %"struct.std::_Optional_payload_base.base.604", [7 x i8] }
%"struct.std::_Optional_payload_base.base.604" = type <{ %"union.std::_Optional_payload_base<llvm::ArrayRef<unsigned long>>::_Storage", i8 }>
%"union.std::_Optional_payload_base<llvm::ArrayRef<unsigned long>>::_Storage" = type { %"class.llvm::ArrayRef.597" }
%"struct.std::_Optional_payload_base.603" = type <{ %"union.std::_Optional_payload_base<llvm::ArrayRef<unsigned long>>::_Storage", i8, [7 x i8] }>

; Function Attrs: mustprogress nounwind uwtable
define linkonce_odr hidden void @_ZNSt22_Optional_payload_baseIN4llvm8ArrayRefImEEE8_StorageIS2_Lb1EEC2IJS2_EEESt10in_place_tDpOT_(ptr noundef nonnull align 8 dereferenceable(16) %0, ptr noundef nonnull align 8 dereferenceable(16) %1) unnamed_addr #1 comdat align 2 {
  %3 = alloca ptr, align 8
  %4 = alloca ptr, align 8
  store ptr %0, ptr %3, align 8
  store ptr %1, ptr %4, align 8
  %5 = load ptr, ptr %3, align 8
  %6 = load ptr, ptr %4, align 8
  call void @llvm.memcpy.p0.p0.i64(ptr align 8 %5, ptr align 8 %6, i64 16, i1 false)
  ret void
}

; Function Attrs: mustprogress nounwind uwtable
define linkonce_odr hidden void @_ZNSt22_Optional_payload_baseIN4llvm8ArrayRefImEEE8_StorageIS2_Lb1EEC2Ev(ptr noundef nonnull align 8 dereferenceable(16) %0) unnamed_addr #1 comdat align 2 {
  %2 = alloca ptr, align 8
  store ptr %0, ptr %2, align 8
  ret void
}

; Function Attrs: mustprogress nounwind uwtable
define linkonce_odr hidden noundef ptr @_ZNKSt6vectorImSaImEE11_M_data_ptrImEEPT_S4_(ptr noundef nonnull align 8 dereferenceable(24) %0, ptr noundef %1) #1 comdat align 2 {
  %3 = alloca ptr, align 8
  %4 = alloca ptr, align 8
  store ptr %0, ptr %3, align 8
  store ptr %1, ptr %4, align 8
  %5 = load ptr, ptr %4, align 8
  ret ptr %5
}

; Function Attrs: mustprogress nounwind uwtable
define linkonce_odr hidden void @_ZNSt22_Optional_payload_baseIN4llvm8ArrayRefImEEEC2IJS2_EEESt10in_place_tDpOT_(ptr noundef nonnull align 8 dereferenceable(17) %0, ptr noundef nonnull align 8 dereferenceable(16) %1) unnamed_addr #1 comdat align 2 {
  %3 = alloca ptr, align 8
  %4 = alloca ptr, align 8
  store ptr %0, ptr %3, align 8
  store ptr %1, ptr %4, align 8
  %5 = load ptr, ptr %3, align 8
  %6 = getelementptr inbounds nuw %"struct.std::_Optional_payload_base.603", ptr %5, i32 0, i32 0
  %7 = load ptr, ptr %4, align 8
  call void @_ZNSt22_Optional_payload_baseIN4llvm8ArrayRefImEEE8_StorageIS2_Lb1EEC2IJS2_EEESt10in_place_tDpOT_(ptr noundef nonnull align 8 dereferenceable(16) %6, ptr noundef nonnull align 8 dereferenceable(16) %7)
  %8 = getelementptr inbounds nuw %"struct.std::_Optional_payload_base.603", ptr %5, i32 0, i32 1
  store i8 1, ptr %8, align 8
  ret void
}

; Function Attrs: mustprogress nounwind uwtable
define linkonce_odr hidden void @_ZNSt22_Optional_payload_baseIN4llvm8ArrayRefImEEEC2Ev(ptr noundef nonnull align 8 dereferenceable(17) %0) unnamed_addr #1 comdat align 2 {
  %2 = alloca ptr, align 8
  store ptr %0, ptr %2, align 8
  %3 = load ptr, ptr %2, align 8
  %4 = getelementptr inbounds nuw %"struct.std::_Optional_payload_base.603", ptr %3, i32 0, i32 0
  call void @_ZNSt22_Optional_payload_baseIN4llvm8ArrayRefImEEE8_StorageIS2_Lb1EEC2Ev(ptr noundef nonnull align 8 dereferenceable(16) %4) #2
  %5 = getelementptr inbounds nuw %"struct.std::_Optional_payload_base.603", ptr %3, i32 0, i32 1
  store i8 0, ptr %5, align 8
  ret void
}

; Function Attrs: mustprogress nounwind uwtable
define linkonce_odr hidden void @_ZN4llvm8ArrayRefImEC2EPKmm(ptr noundef nonnull align 8 dereferenceable(16) %0, ptr noundef %1, i64 noundef %2) unnamed_addr #1 comdat align 2 {
  %4 = alloca ptr, align 8
  %5 = alloca ptr, align 8
  %6 = alloca i64, align 8
  store ptr %0, ptr %4, align 8
  store ptr %1, ptr %5, align 8
  store i64 %2, ptr %6, align 8
  %7 = load ptr, ptr %4, align 8
  %8 = getelementptr inbounds nuw %"class.llvm::ArrayRef.597", ptr %7, i32 0, i32 0
  %9 = load ptr, ptr %5, align 8
  store ptr %9, ptr %8, align 8
  %10 = getelementptr inbounds nuw %"class.llvm::ArrayRef.597", ptr %7, i32 0, i32 1
  %11 = load i64, ptr %6, align 8
  store i64 %11, ptr %10, align 8
  ret void
}

; Function Attrs: mustprogress nounwind uwtable
define linkonce_odr hidden noundef ptr @_ZNK4llvm8ArrayRefImE4dataEv(ptr noundef nonnull align 8 dereferenceable(16) %0) #1 comdat align 2 {
  %2 = alloca ptr, align 8
  store ptr %0, ptr %2, align 8
  %3 = load ptr, ptr %2, align 8
  %4 = getelementptr inbounds nuw %"class.llvm::ArrayRef.597", ptr %3, i32 0, i32 0
  %5 = load ptr, ptr %4, align 8
  ret ptr %5
}

; Function Attrs: mustprogress nounwind uwtable
define linkonce_odr hidden noundef ptr @_ZNKSt6vectorImSaImEE4dataEv(ptr noundef nonnull align 8 dereferenceable(24) %0) #1 comdat align 2 {
  %2 = alloca ptr, align 8
  store ptr %0, ptr %2, align 8
  %3 = load ptr, ptr %2, align 8
  %4 = getelementptr inbounds nuw %"struct.std::_Vector_base", ptr %3, i32 0, i32 0
  %5 = getelementptr inbounds nuw %"struct.std::_Vector_base<unsigned long, std::allocator<unsigned long>>::_Vector_impl_data", ptr %4, i32 0, i32 0
  %6 = load ptr, ptr %5, align 8
  %7 = call noundef ptr @_ZNKSt6vectorImSaImEE11_M_data_ptrImEEPT_S4_(ptr noundef nonnull align 8 dereferenceable(24) %3, ptr noundef %6) #2
  ret ptr %7
}

; Function Attrs: mustprogress nounwind uwtable
define linkonce_odr hidden void @_ZNSt17_Optional_payloadIN4llvm8ArrayRefImEELb1ELb1ELb1EECI2St22_Optional_payload_baseIS2_EIJS2_EEESt10in_place_tDpOT_(ptr noundef nonnull align 8 dereferenceable(17) %0, ptr noundef nonnull align 8 dereferenceable(16) %1) unnamed_addr #1 comdat align 2 {
  %3 = alloca ptr, align 8
  %4 = alloca ptr, align 8
  store ptr %0, ptr %3, align 8
  store ptr %1, ptr %4, align 8
  %5 = load ptr, ptr %3, align 8
  %6 = load ptr, ptr %4, align 8
  call void @_ZNSt22_Optional_payload_baseIN4llvm8ArrayRefImEEEC2IJS2_EEESt10in_place_tDpOT_(ptr noundef nonnull align 8 dereferenceable(17) %5, ptr noundef nonnull align 8 dereferenceable(16) %6)
  ret void
}

; Function Attrs: mustprogress nounwind uwtable
define linkonce_odr hidden void @_ZNSt17_Optional_payloadIN4llvm8ArrayRefImEELb1ELb1ELb1EEC2Ev(ptr noundef nonnull align 8 dereferenceable(17) %0) unnamed_addr #1 comdat align 2 {
  %2 = alloca ptr, align 8
  store ptr %0, ptr %2, align 8
  %3 = load ptr, ptr %2, align 8
  call void @_ZNSt22_Optional_payload_baseIN4llvm8ArrayRefImEEEC2Ev(ptr noundef nonnull align 8 dereferenceable(17) %3) #2
  ret void
}

; Function Attrs: mustprogress nounwind uwtable
define linkonce_odr hidden { ptr, i64 } @_ZNK4llvm8ArrayRefImE5sliceEmm(ptr noundef nonnull align 8 dereferenceable(16) %0, i64 noundef %1, i64 noundef %2) #1 comdat align 2 {
  %4 = alloca %"class.llvm::ArrayRef.597", align 8
  %5 = alloca ptr, align 8
  %6 = alloca i64, align 8
  %7 = alloca i64, align 8
  store ptr %0, ptr %5, align 8
  store i64 %1, ptr %6, align 8
  store i64 %2, ptr %7, align 8
  %8 = load ptr, ptr %5, align 8
  %9 = call noundef ptr @_ZNK4llvm8ArrayRefImE4dataEv(ptr noundef nonnull align 8 dereferenceable(16) %8)
  %10 = load i64, ptr %6, align 8
  %11 = getelementptr inbounds i64, ptr %9, i64 %10
  %12 = load i64, ptr %7, align 8
  call void @_ZN4llvm8ArrayRefImEC2EPKmm(ptr noundef nonnull align 8 dereferenceable(16) %4, ptr noundef %11, i64 noundef %12)
  %13 = load { ptr, i64 }, ptr %4, align 8
  ret { ptr, i64 } %13
}

; Function Attrs: mustprogress nounwind uwtable
define linkonce_odr hidden noundef i64 @_ZNK4llvm8ArrayRefImE4sizeEv(ptr noundef nonnull align 8 dereferenceable(16) %0) #1 comdat align 2 {
  %2 = alloca ptr, align 8
  store ptr %0, ptr %2, align 8
  %3 = load ptr, ptr %2, align 8
  %4 = getelementptr inbounds nuw %"class.llvm::ArrayRef.597", ptr %3, i32 0, i32 1
  %5 = load i64, ptr %4, align 8
  ret i64 %5
}

; Function Attrs: mustprogress nounwind uwtable
define linkonce_odr hidden void @_ZN4llvm8ArrayRefImEC2ISaImEEERKSt6vectorImT_E(ptr noundef nonnull align 8 dereferenceable(16) %0, ptr noundef nonnull align 8 dereferenceable(24) %1) unnamed_addr #1 comdat align 2 {
  %3 = alloca ptr, align 8
  %4 = alloca ptr, align 8
  store ptr %0, ptr %3, align 8
  store ptr %1, ptr %4, align 8
  %5 = load ptr, ptr %3, align 8
  %6 = getelementptr inbounds nuw %"class.llvm::ArrayRef.597", ptr %5, i32 0, i32 0
  %7 = load ptr, ptr %4, align 8
  %8 = call noundef ptr @_ZNKSt6vectorImSaImEE4dataEv(ptr noundef nonnull align 8 dereferenceable(24) %7) #2
  store ptr %8, ptr %6, align 8
  %9 = getelementptr inbounds nuw %"class.llvm::ArrayRef.597", ptr %5, i32 0, i32 1
  %10 = load ptr, ptr %4, align 8
  %11 = call noundef i64 @_ZNKSt6vectorImSaImEE4sizeEv(ptr noundef nonnull align 8 dereferenceable(24) %10) #2
  store i64 %11, ptr %9, align 8
  ret void
}

; Function Attrs: mustprogress nounwind uwtable
define linkonce_odr hidden void @_ZNSt14_Optional_baseIN4llvm8ArrayRefImEELb1ELb1EEC2IJS2_ETnNSt9enable_ifIX18is_constructible_vIS2_DpT_EEbE4typeELb0EEESt10in_place_tDpOS6_(ptr noundef nonnull align 8 dereferenceable(24) %0, ptr noundef nonnull align 8 dereferenceable(16) %1) unnamed_addr #1 comdat align 2 {
  %3 = alloca ptr, align 8
  %4 = alloca ptr, align 8
  store ptr %0, ptr %3, align 8
  store ptr %1, ptr %4, align 8
  %5 = load ptr, ptr %3, align 8
  %6 = getelementptr inbounds nuw %"struct.std::_Optional_base.600", ptr %5, i32 0, i32 0
  %7 = load ptr, ptr %4, align 8
  call void @_ZNSt17_Optional_payloadIN4llvm8ArrayRefImEELb1ELb1ELb1EECI2St22_Optional_payload_baseIS2_EIJS2_EEESt10in_place_tDpOT_(ptr noundef nonnull align 8 dereferenceable(17) %6, ptr noundef nonnull align 8 dereferenceable(16) %7)
  ret void
}

; Function Attrs: mustprogress nounwind uwtable
define linkonce_odr hidden noundef i64 @_ZNKSt6vectorImSaImEE4sizeEv(ptr noundef nonnull align 8 dereferenceable(24) %0) #1 comdat align 2 {
  %2 = alloca ptr, align 8
  store ptr %0, ptr %2, align 8
  %3 = load ptr, ptr %2, align 8
  %4 = getelementptr inbounds nuw %"struct.std::_Vector_base", ptr %3, i32 0, i32 0
  %5 = getelementptr inbounds nuw %"struct.std::_Vector_base<unsigned long, std::allocator<unsigned long>>::_Vector_impl_data", ptr %4, i32 0, i32 1
  %6 = load ptr, ptr %5, align 8
  %7 = getelementptr inbounds nuw %"struct.std::_Vector_base", ptr %3, i32 0, i32 0
  %8 = getelementptr inbounds nuw %"struct.std::_Vector_base<unsigned long, std::allocator<unsigned long>>::_Vector_impl_data", ptr %7, i32 0, i32 0
  %9 = load ptr, ptr %8, align 8
  %10 = ptrtoint ptr %6 to i64
  %11 = ptrtoint ptr %9 to i64
  %12 = sub i64 %10, %11
  %13 = sdiv exact i64 %12, 8
  ret i64 %13
}

; Function Attrs: mustprogress nounwind uwtable
define linkonce_odr hidden void @_ZNSt14_Optional_baseIN4llvm8ArrayRefImEELb1ELb1EEC2Ev(ptr noundef nonnull align 8 dereferenceable(24) %0) unnamed_addr #1 comdat align 2 {
  %2 = alloca ptr, align 8
  store ptr %0, ptr %2, align 8
  %3 = load ptr, ptr %2, align 8
  %4 = getelementptr inbounds nuw %"struct.std::_Optional_base.600", ptr %3, i32 0, i32 0
  call void @_ZNSt17_Optional_payloadIN4llvm8ArrayRefImEELb1ELb1ELb1EEC2Ev(ptr noundef nonnull align 8 dereferenceable(17) %4) #2
  ret void
}

; Function Attrs: mustprogress nounwind uwtable
define linkonce_odr hidden { ptr, i64 } @_ZNK4llvm8ArrayRefImE10drop_frontEm(ptr noundef nonnull align 8 dereferenceable(16) %0, i64 noundef %1) #1 comdat align 2 {
  %3 = alloca %"class.llvm::ArrayRef.597", align 8
  %4 = alloca ptr, align 8
  %5 = alloca i64, align 8
  store ptr %0, ptr %4, align 8
  store i64 %1, ptr %5, align 8
  %6 = load ptr, ptr %4, align 8
  %7 = load i64, ptr %5, align 8
  %8 = call noundef i64 @_ZNK4llvm8ArrayRefImE4sizeEv(ptr noundef nonnull align 8 dereferenceable(16) %6)
  %9 = load i64, ptr %5, align 8
  %10 = sub i64 %8, %9
  %11 = call { ptr, i64 } @_ZNK4llvm8ArrayRefImE5sliceEmm(ptr noundef nonnull align 8 dereferenceable(16) %6, i64 noundef %7, i64 noundef %10)
  %12 = getelementptr inbounds nuw { ptr, i64 }, ptr %3, i32 0, i32 0
  %13 = extractvalue { ptr, i64 } %11, 0
  store ptr %13, ptr %12, align 8
  %14 = getelementptr inbounds nuw { ptr, i64 }, ptr %3, i32 0, i32 1
  %15 = extractvalue { ptr, i64 } %11, 1
  store i64 %15, ptr %14, align 8
  %16 = load { ptr, i64 }, ptr %3, align 8
  ret { ptr, i64 } %16
}

; Function Attrs: mustprogress nounwind uwtable
define linkonce_odr hidden noundef nonnull align 8 dereferenceable(8) ptr @_ZNK4llvm8ArrayRefImEixEm(ptr noundef nonnull align 8 dereferenceable(16) %0, i64 noundef %1) #1 comdat align 2 {
  %3 = alloca ptr, align 8
  %4 = alloca i64, align 8
  store ptr %0, ptr %3, align 8
  store i64 %1, ptr %4, align 8
  %5 = load ptr, ptr %3, align 8
  %6 = getelementptr inbounds nuw %"class.llvm::ArrayRef.597", ptr %5, i32 0, i32 0
  %7 = load ptr, ptr %6, align 8
  %8 = load i64, ptr %4, align 8
  %9 = getelementptr inbounds i64, ptr %7, i64 %8
  ret ptr %9
}

; Function Attrs: mustprogress nounwind uwtable
define linkonce_odr hidden { ptr, i64 } @_ZNK4llvm12DIExpression11getElementsEv(ptr noundef nonnull align 8 dereferenceable(40) %0) #1 comdat align 2 {
  %2 = alloca %"class.llvm::ArrayRef.597", align 8
  %3 = alloca ptr, align 8
  store ptr %0, ptr %3, align 8
  %4 = load ptr, ptr %3, align 8
  %5 = getelementptr inbounds nuw %"class.llvm::DIExpression", ptr %4, i32 0, i32 1
  call void @_ZN4llvm8ArrayRefImEC2ISaImEEERKSt6vectorImT_E(ptr noundef nonnull align 8 dereferenceable(16) %2, ptr noundef nonnull align 8 dereferenceable(24) %5)
  %6 = load { ptr, i64 }, ptr %2, align 8
  ret { ptr, i64 } %6
}

; Function Attrs: mustprogress nounwind uwtable
define linkonce_odr hidden void @_ZNSt8optionalIN4llvm8ArrayRefImEEEC2IS2_TnNSt9enable_ifIX7__and_vISt6__not_ISt7is_sameIS3_NSt9remove_cvINSt16remove_referenceIT_E4typeEE4typeEEES6_IS7_ISt10in_place_tSE_EESt16is_constructibleIS2_JSA_EESt14is_convertibleISA_S2_EEEbE4typeELb1EEEOSA_(ptr noundef nonnull align 8 dereferenceable(24) %0, ptr noundef nonnull align 8 dereferenceable(16) %1) unnamed_addr #1 comdat align 2 {
  %3 = alloca ptr, align 8
  %4 = alloca ptr, align 8
  store ptr %0, ptr %3, align 8
  store ptr %1, ptr %4, align 8
  %5 = load ptr, ptr %3, align 8
  %6 = load ptr, ptr %4, align 8
  call void @_ZNSt14_Optional_baseIN4llvm8ArrayRefImEELb1ELb1EEC2IJS2_ETnNSt9enable_ifIX18is_constructible_vIS2_DpT_EEbE4typeELb0EEESt10in_place_tDpOS6_(ptr noundef nonnull align 8 dereferenceable(24) %5, ptr noundef nonnull align 8 dereferenceable(16) %6)
  ret void
}

; Function Attrs: mustprogress nounwind uwtable
define linkonce_odr hidden void @_ZN4llvm8ArrayRefImEC2Ev(ptr noundef nonnull align 8 dereferenceable(16) %0) unnamed_addr #1 comdat align 2 {
  %2 = alloca ptr, align 8
  store ptr %0, ptr %2, align 8
  %3 = load ptr, ptr %2, align 8
  %4 = getelementptr inbounds nuw %"class.llvm::ArrayRef.597", ptr %3, i32 0, i32 0
  store ptr null, ptr %4, align 8
  %5 = getelementptr inbounds nuw %"class.llvm::ArrayRef.597", ptr %3, i32 0, i32 1
  store i64 0, ptr %5, align 8
  ret void
}

; Function Attrs: mustprogress nounwind uwtable
define linkonce_odr hidden noundef i32 @_ZNK4llvm12DIExpression14getNumElementsEv(ptr noundef nonnull align 8 dereferenceable(40) %0) #1 comdat align 2 {
  %2 = alloca ptr, align 8
  store ptr %0, ptr %2, align 8
  %3 = load ptr, ptr %2, align 8
  %4 = getelementptr inbounds nuw %"class.llvm::DIExpression", ptr %3, i32 0, i32 1
  %5 = call noundef i64 @_ZNKSt6vectorImSaImEE4sizeEv(ptr noundef nonnull align 8 dereferenceable(24) %4) #2
  %6 = trunc i64 %5 to i32
  ret i32 %6
}

; Function Attrs: mustprogress nounwind uwtable
define linkonce_odr hidden void @_ZNSt8optionalIN4llvm8ArrayRefImEEEC2ESt9nullopt_t(ptr noundef nonnull align 8 dereferenceable(24) %0) unnamed_addr #1 comdat align 2 {
  %2 = alloca ptr, align 8
  store ptr %0, ptr %2, align 8
  %3 = load ptr, ptr %2, align 8
  call void @_ZNSt14_Optional_baseIN4llvm8ArrayRefImEELb1ELb1EEC2Ev(ptr noundef nonnull align 8 dereferenceable(24) %3) #2
  ret void
}

; Function Attrs: mustprogress nounwind uwtable
define dso_local void @_ZNK4llvm12DIExpression35getSingleLocationExpressionElementsEv(ptr dead_on_unwind noalias writable sret(%"class.std::optional.599") align 8 %0, ptr noundef nonnull align 8 dereferenceable(40) %1) #1 align 2 {
  %3 = alloca ptr, align 8
  %4 = alloca %"class.llvm::ArrayRef.597", align 8
  %5 = alloca %"class.llvm::ArrayRef.597", align 8
  %6 = alloca %"class.llvm::ArrayRef.597", align 8
  %7 = alloca %"class.llvm::ArrayRef.597", align 8
  %8 = alloca %"class.llvm::ArrayRef.597", align 8
  store ptr %1, ptr %3, align 8
  %9 = load ptr, ptr %3, align 8
  %10 = call noundef zeroext i1 @_ZNK4llvm12DIExpression26isSingleLocationExpressionEv(ptr noundef nonnull align 8 dereferenceable(40) %9)
  br i1 %10, label %12, label %11

11:                                               ; preds = %2
  call void @_ZNSt8optionalIN4llvm8ArrayRefImEEEC2ESt9nullopt_t(ptr noundef nonnull align 8 dereferenceable(24) %0) #2
  br label %42

12:                                               ; preds = %2
  %13 = call noundef i32 @_ZNK4llvm12DIExpression14getNumElementsEv(ptr noundef nonnull align 8 dereferenceable(40) %9)
  %14 = icmp ne i32 %13, 0
  br i1 %14, label %16, label %15

15:                                               ; preds = %12
  call void @llvm.memset.p0.i64(ptr align 8 %4, i8 0, i64 16, i1 false)
  call void @_ZN4llvm8ArrayRefImEC2Ev(ptr noundef nonnull align 8 dereferenceable(16) %4) #2
  call void @_ZNSt8optionalIN4llvm8ArrayRefImEEEC2IS2_TnNSt9enable_ifIX7__and_vISt6__not_ISt7is_sameIS3_NSt9remove_cvINSt16remove_referenceIT_E4typeEE4typeEEES6_IS7_ISt10in_place_tSE_EESt16is_constructibleIS2_JSA_EESt14is_convertibleISA_S2_EEEbE4typeELb1EEEOSA_(ptr noundef nonnull align 8 dereferenceable(24) %0, ptr noundef nonnull align 8 dereferenceable(16) %4) #2
  br label %42

16:                                               ; preds = %12
  %17 = call { ptr, i64 } @_ZNK4llvm12DIExpression11getElementsEv(ptr noundef nonnull align 8 dereferenceable(40) %9)
  %18 = getelementptr inbounds nuw { ptr, i64 }, ptr %5, i32 0, i32 0
  %19 = extractvalue { ptr, i64 } %17, 0
  store ptr %19, ptr %18, align 8
  %20 = getelementptr inbounds nuw { ptr, i64 }, ptr %5, i32 0, i32 1
  %21 = extractvalue { ptr, i64 } %17, 1
  store i64 %21, ptr %20, align 8
  %22 = call noundef nonnull align 8 dereferenceable(8) ptr @_ZNK4llvm8ArrayRefImEixEm(ptr noundef nonnull align 8 dereferenceable(16) %5, i64 noundef 0)
  %23 = load i64, ptr %22, align 8
  %24 = icmp eq i64 %23, 4101
  br i1 %24, label %25, label %36

25:                                               ; preds = %16
  %26 = call { ptr, i64 } @_ZNK4llvm12DIExpression11getElementsEv(ptr noundef nonnull align 8 dereferenceable(40) %9)
  %27 = getelementptr inbounds nuw { ptr, i64 }, ptr %7, i32 0, i32 0
  %28 = extractvalue { ptr, i64 } %26, 0
  store ptr %28, ptr %27, align 8
  %29 = getelementptr inbounds nuw { ptr, i64 }, ptr %7, i32 0, i32 1
  %30 = extractvalue { ptr, i64 } %26, 1
  store i64 %30, ptr %29, align 8
  %31 = call { ptr, i64 } @_ZNK4llvm8ArrayRefImE10drop_frontEm(ptr noundef nonnull align 8 dereferenceable(16) %7, i64 noundef 2)
  %32 = getelementptr inbounds nuw { ptr, i64 }, ptr %6, i32 0, i32 0
  %33 = extractvalue { ptr, i64 } %31, 0
  store ptr %33, ptr %32, align 8
  %34 = getelementptr inbounds nuw { ptr, i64 }, ptr %6, i32 0, i32 1
  %35 = extractvalue { ptr, i64 } %31, 1
  store i64 %35, ptr %34, align 8
  call void @_ZNSt8optionalIN4llvm8ArrayRefImEEEC2IS2_TnNSt9enable_ifIX7__and_vISt6__not_ISt7is_sameIS3_NSt9remove_cvINSt16remove_referenceIT_E4typeEE4typeEEES6_IS7_ISt10in_place_tSE_EESt16is_constructibleIS2_JSA_EESt14is_convertibleISA_S2_EEEbE4typeELb1EEEOSA_(ptr noundef nonnull align 8 dereferenceable(24) %0, ptr noundef nonnull align 8 dereferenceable(16) %6) #2
  br label %42

36:                                               ; preds = %16
  %37 = call { ptr, i64 } @_ZNK4llvm12DIExpression11getElementsEv(ptr noundef nonnull align 8 dereferenceable(40) %9)
  %38 = getelementptr inbounds nuw { ptr, i64 }, ptr %8, i32 0, i32 0
  %39 = extractvalue { ptr, i64 } %37, 0
  store ptr %39, ptr %38, align 8
  %40 = getelementptr inbounds nuw { ptr, i64 }, ptr %8, i32 0, i32 1
  %41 = extractvalue { ptr, i64 } %37, 1
  store i64 %41, ptr %40, align 8
  call void @_ZNSt8optionalIN4llvm8ArrayRefImEEEC2IS2_TnNSt9enable_ifIX7__and_vISt6__not_ISt7is_sameIS3_NSt9remove_cvINSt16remove_referenceIT_E4typeEE4typeEEES6_IS7_ISt10in_place_tSE_EESt16is_constructibleIS2_JSA_EESt14is_convertibleISA_S2_EEEbE4typeELb1EEEOSA_(ptr noundef nonnull align 8 dereferenceable(24) %0, ptr noundef nonnull align 8 dereferenceable(16) %8) #2
  br label %42

42:                                               ; preds = %36, %25, %15, %11
  ret void
}