; Function Attrs: mustprogress nounwind uwtable
define dso_local void @_ZNK4llvm12DIExpression35getSingleLocationExpressionElementsEv(ptr dead_on_unwind noalias nocapture writable writeonly sret(%"class.std::optional.599") align 8 %0, ptr nocapture noundef nonnull readonly align 8 dereferenceable(40) %1) local_unnamed_addr #0 align 2 {
  %3 = tail call noundef zeroext i1 @_ZNK4llvm12DIExpression26isSingleLocationExpressionEv(ptr noundef nonnull align 8 dereferenceable(40) %1)
  br i1 %3, label %4, label %22

4:                                                ; preds = %2
  %5 = getelementptr inbounds nuw i8, ptr %1, i64 16
  %6 = getelementptr inbounds i8, ptr %1, i64 24
  %7 = load ptr, ptr %6, align 8
  %8 = load ptr, ptr %5, align 8
  %9 = ptrtoint ptr %7 to i64
  %10 = ptrtoint ptr %8 to i64
  %11 = sub i64 %9, %10
  %12 = and i64 %11, 34359738360
  %.not = icmp eq i64 %12, 0
  br i1 %.not, label %13, label %14

13:                                               ; preds = %4
  tail call void @llvm.memset.p0.i64(ptr noundef nonnull align 8 dereferenceable(16) %0, i8 0, i64 16, i1 false)
  br label %22

14:                                               ; preds = %4
  %15 = ashr exact i64 %11, 3
  %16 = load i64, ptr %8, align 8
  %17 = icmp eq i64 %16, 4101
  br i1 %17, label %18, label %21

18:                                               ; preds = %14
  %19 = add nsw i64 %15, -2
  %20 = getelementptr inbounds i8, ptr %8, i64 16
  store ptr %20, ptr %0, align 8
  %.sroa.28.0..sroa_idx = getelementptr inbounds i8, ptr %0, i64 8
  store i64 %19, ptr %.sroa.28.0..sroa_idx, align 8
  br label %22

21:                                               ; preds = %14
  store ptr %8, ptr %0, align 8
  %.sroa.2.0..sroa_idx = getelementptr inbounds i8, ptr %0, i64 8
  store i64 %15, ptr %.sroa.2.0..sroa_idx, align 8
  br label %22

22:                                               ; preds = %2, %21, %18, %13
  %.sink = phi i8 [ 1, %21 ], [ 1, %18 ], [ 1, %13 ], [ 0, %2 ]
  %23 = getelementptr inbounds nuw i8, ptr %0, i64 16
  store i8 %.sink, ptr %23, align 8
  ret void
}